target datalayout = "e-m:e-p270:32:32-p271:32:32-p272:64:64-i64:64-i128:128-f80:128-n8:16:32:64-S128"
target triple = "x86_64-pc-linux-gnu"

; Function Attrs: nounwind uwtable
define internal void @jpeg_undifference2(ptr noundef %0, i32 noundef %1, ptr noundef %2, ptr noundef %3, ptr noundef %4, i32 noundef %5) #0 {
  %7 = alloca ptr, align 8
  %8 = alloca i32, align 4
  %9 = alloca ptr, align 8
  %10 = alloca ptr, align 8
  %11 = alloca ptr, align 8
  %12 = alloca i32, align 4
  %13 = alloca i32, align 4
  %14 = alloca i32, align 4
  %15 = alloca i32, align 4
  store ptr %0, ptr %7, align 8, !tbaa !3
  store i32 %1, ptr %8, align 4, !tbaa !50
  store ptr %2, ptr %9, align 8, !tbaa !55
  store ptr %3, ptr %10, align 8, !tbaa !55
  store ptr %4, ptr %11, align 8, !tbaa !55
  store i32 %5, ptr %12, align 4, !tbaa !50
  call void @llvm.lifetime.start.p0(i64 4, ptr %13) #2
  call void @llvm.lifetime.start.p0(i64 4, ptr %14) #2
  call void @llvm.lifetime.start.p0(i64 4, ptr %15) #2
  %16 = load ptr, ptr %10, align 8, !tbaa !55
  %17 = getelementptr inbounds nuw i32, ptr %16, i32 1
  store ptr %17, ptr %10, align 8, !tbaa !55
  %18 = load i32, ptr %16, align 4, !tbaa !50
  store i32 %18, ptr %14, align 4, !tbaa !50
  %19 = load ptr, ptr %9, align 8, !tbaa !55
  %20 = getelementptr inbounds nuw i32, ptr %19, i32 1
  store ptr %20, ptr %9, align 8, !tbaa !55
  %21 = load i32, ptr %19, align 4, !tbaa !50
  %22 = load i32, ptr %14, align 4, !tbaa !50
  %23 = add nsw i32 %21, %22
  %24 = and i32 %23, 65535
  store i32 %24, ptr %13, align 4, !tbaa !50
  %25 = load i32, ptr %13, align 4, !tbaa !50
  %26 = load ptr, ptr %11, align 8, !tbaa !55
  %27 = getelementptr inbounds nuw i32, ptr %26, i32 1
  store ptr %27, ptr %11, align 8, !tbaa !55
  store i32 %25, ptr %26, align 4, !tbaa !50
  br label %28

28:                                               ; preds = %32, %6
  %29 = load i32, ptr %12, align 4, !tbaa !50
  %30 = add i32 %29, -1
  store i32 %30, ptr %12, align 4, !tbaa !50
  %31 = icmp ne i32 %30, 0
  br i1 %31, label %32, label %46

32:                                               ; preds = %28
  %33 = load i32, ptr %14, align 4, !tbaa !50
  store i32 %33, ptr %15, align 4, !tbaa !50
  %34 = load ptr, ptr %10, align 8, !tbaa !55
  %35 = getelementptr inbounds nuw i32, ptr %34, i32 1
  store ptr %35, ptr %10, align 8, !tbaa !55
  %36 = load i32, ptr %34, align 4, !tbaa !50
  store i32 %36, ptr %14, align 4, !tbaa !50
  %37 = load ptr, ptr %9, align 8, !tbaa !55
  %38 = getelementptr inbounds nuw i32, ptr %37, i32 1
  store ptr %38, ptr %9, align 8, !tbaa !55
  %39 = load i32, ptr %37, align 4, !tbaa !50
  %40 = load i32, ptr %14, align 4, !tbaa !50
  %41 = add nsw i32 %39, %40
  %42 = and i32 %41, 65535
  store i32 %42, ptr %13, align 4, !tbaa !50
  %43 = load i32, ptr %13, align 4, !tbaa !50
  %44 = load ptr, ptr %11, align 8, !tbaa !55
  %45 = getelementptr inbounds nuw i32, ptr %44, i32 1
  store ptr %45, ptr %11, align 8, !tbaa !55
  store i32 %43, ptr %44, align 4, !tbaa !50
  br label %28, !llvm.loop !61

46:                                               ; preds = %28
  call void @llvm.lifetime.end.p0(i64 4, ptr %15) #2
  call void @llvm.lifetime.end.p0(i64 4, ptr %14) #2
  call void @llvm.lifetime.end.p0(i64 4, ptr %13) #2
  ret void
}